; Listing generated by Microsoft (R) Optimizing Compiler Version 19.16.27034.0 

include listing.inc

INCLUDELIB MSVCRTD
INCLUDELIB OLDNAMES

CONST	SEGMENT
?qt_meta_stringdata_addstudent@@3Uqt_meta_stringdata_addstudent_t@@B DD 0ffffffffH ; qt_meta_stringdata_addstudent
	DD	0aH
	DD	00H
	ORG $+4
	DQ	0000000000000048H
	DD	0ffffffffH
	DD	018H
	DD	00H
	ORG $+4
	DQ	000000000000003bH
	DD	0ffffffffH
	DD	00H
	DD	00H
	ORG $+4
	DQ	000000000000003cH
	DB	061H
	DB	064H
	DB	064H
	DB	073H
	DB	074H
	DB	075H
	DB	064H
	DB	065H
	DB	06eH
	DB	074H
	DB	00H
	DB	06fH
	DB	06eH
	DB	05fH
	DB	070H
	DB	075H
	DB	073H
	DB	068H
	DB	042H
	DB	075H
	DB	074H
	DB	074H
	DB	06fH
	DB	06eH
	DB	05fH
	DB	06fH
	DB	06bH
	DB	05fH
	DB	063H
	DB	06cH
	DB	069H
	DB	063H
	DB	06bH
	DB	065H
	DB	064H
	DB	00H
	DB	00H
	ORG $+3
?qt_meta_data_addstudent@@3QBIB DD 08H			; qt_meta_data_addstudent
	DD	00H
	DD	00H
	DD	00H
	DD	01H
	DD	0eH
	DD	00H
	DD	00H
	DD	00H
	DD	00H
	DD	00H
	DD	00H
	DD	00H
	DD	00H
	DD	01H
	DD	00H
	DD	013H
	DD	02H
	DD	08H
	DD	02bH
	DD	00H
	ORG $+4
$SG134997 DB	'e:\qt\5.13.1\msvc2017_64\include\qtcore\qmetatype.h', 00H
	ORG $+4
$SG134998 DB	'qRegisterNormalizedMetaType was called with a not normal'
	DB	'ized type name, please call qRegisterMetaType instead.', 00H
	ORG $+1
$SG134999 DB	'qRegisterNormalizedMetaType', 00H
	ORG $+4
$SG135334 DB	'e:\qt\5.13.1\msvc2017_64\include\qtcore\qmetatype.h', 00H
	ORG $+12
$SG135335 DB	'qRegisterNormalizedMetaType was called with a not normal'
	DB	'ized type name, please call qRegisterMetaType instead.', 00H
	ORG $+1
$SG135336 DB	'qRegisterNormalizedMetaType', 00H
	ORG $+4
$SG135671 DB	'e:\qt\5.13.1\msvc2017_64\include\qtcore\qmetatype.h', 00H
	ORG $+12
$SG135672 DB	'qRegisterNormalizedMetaType was called with a not normal'
	DB	'ized type name, please call qRegisterMetaType instead.', 00H
	ORG $+1
$SG135673 DB	'qRegisterNormalizedMetaType', 00H
CONST	ENDS
PUBLIC	?__empty_global_delete@@YAXPEAX@Z		; __empty_global_delete
PUBLIC	?__empty_global_delete@@YAXPEAX_K@Z		; __empty_global_delete
PUBLIC	??C?$QScopedPointer@VQObjectData@@U?$QScopedPointerDeleter@VQObjectData@@@@@@QEBAPEAVQObjectData@@XZ ; QScopedPointer<QObjectData,QScopedPointerDeleter<QObjectData> >::operator->
PUBLIC	?metaObject@addstudent@@UEBAPEBUQMetaObject@@XZ	; addstudent::metaObject
PUBLIC	?qt_metacast@addstudent@@UEAAPEAXPEBD@Z		; addstudent::qt_metacast
PUBLIC	?qt_metacall@addstudent@@UEAAHW4Call@QMetaObject@@HPEAPEAX@Z ; addstudent::qt_metacall
PUBLIC	?qt_static_metacall@addstudent@@CAXPEAVQObject@@W4Call@QMetaObject@@HPEAPEAX@Z ; addstudent::qt_static_metacall
PUBLIC	?staticMetaObject@addstudent@@2UQMetaObject@@B	; addstudent::staticMetaObject
EXTRN	strcmp:PROC
EXTRN	__imp_?dynamicMetaObject@QObjectData@@QEBAPEAUQMetaObject@@XZ:PROC
EXTRN	__imp_?qt_metacast@QDialog@@UEAAPEAXPEBD@Z:PROC
EXTRN	__imp_?qt_metacall@QDialog@@UEAAHW4Call@QMetaObject@@HPEAPEAX@Z:PROC
EXTRN	?on_pushButton_ok_clicked@addstudent@@AEAAXXZ:PROC ; addstudent::on_pushButton_ok_clicked
EXTRN	__imp_?staticMetaObject@QDialog@@2UQMetaObject@@B:BYTE
_BSS	SEGMENT
?staticMetaObject@addstudent@@2UQMetaObject@@B DB 030H DUP (?) ; addstudent::staticMetaObject
_BSS	ENDS
pdata	SEGMENT
$pdata$?metaObject@addstudent@@UEBAPEBUQMetaObject@@XZ DD imagerel $LN5
	DD	imagerel $LN5+88
	DD	imagerel $unwind$?metaObject@addstudent@@UEBAPEBUQMetaObject@@XZ
$pdata$?qt_metacast@addstudent@@UEAAPEAXPEBD@Z DD imagerel $LN5
	DD	imagerel $LN5+75
	DD	imagerel $unwind$?qt_metacast@addstudent@@UEAAPEAXPEBD@Z
$pdata$?qt_metacall@addstudent@@UEAAHW4Call@QMetaObject@@HPEAPEAX@Z DD imagerel $LN9
	DD	imagerel $LN9+172
	DD	imagerel $unwind$?qt_metacall@addstudent@@UEAAHW4Call@QMetaObject@@HPEAPEAX@Z
$pdata$?qt_static_metacall@addstudent@@CAXPEAVQObject@@W4Call@QMetaObject@@HPEAPEAX@Z DD imagerel $LN8
	DD	imagerel $LN8+72
	DD	imagerel $unwind$?qt_static_metacall@addstudent@@CAXPEAVQObject@@W4Call@QMetaObject@@HPEAPEAX@Z
pdata	ENDS
CRT$XCU	SEGMENT
??staticMetaObject$initializer$@addstudent@@2P6AXXZEA@@3P6AXXZEA DQ FLAT:??__E?staticMetaObject@addstudent@@2UQMetaObject@@B@@YAXXZ ; ??staticMetaObject$initializer$@addstudent@@2P6AXXZEA@@3P6AXXZEA
CRT$XCU	ENDS
xdata	SEGMENT
$unwind$?metaObject@addstudent@@UEBAPEBUQMetaObject@@XZ DD 010901H
	DD	06209H
$unwind$?qt_metacast@addstudent@@UEAAPEAXPEBD@Z DD 010e01H
	DD	0420eH
$unwind$?qt_metacall@addstudent@@UEAAHW4Call@QMetaObject@@HPEAPEAX@Z DD 011701H
	DD	04217H
$unwind$?qt_static_metacall@addstudent@@CAXPEAVQObject@@W4Call@QMetaObject@@HPEAPEAX@Z DD 011701H
	DD	06217H
xdata	ENDS
; Function compile flags: /Odtp
;	COMDAT ??__E?staticMetaObject@addstudent@@2UQMetaObject@@B@@YAXXZ
text$di	SEGMENT
??__E?staticMetaObject@addstudent@@2UQMetaObject@@B@@YAXXZ PROC ; `dynamic initializer for 'addstudent::staticMetaObject'', COMDAT
; File f:\qt\system\system\x64\debug\moc\moc_addstudent.cpp
; Line 81
	mov	rax, QWORD PTR __imp_?staticMetaObject@QDialog@@2UQMetaObject@@B
	mov	QWORD PTR ?staticMetaObject@addstudent@@2UQMetaObject@@B, rax
; Line 82
	lea	rax, OFFSET FLAT:?qt_meta_stringdata_addstudent@@3Uqt_meta_stringdata_addstudent_t@@B
	mov	QWORD PTR ?staticMetaObject@addstudent@@2UQMetaObject@@B+8, rax
; Line 83
	lea	rax, OFFSET FLAT:?qt_meta_data_addstudent@@3QBIB
	mov	QWORD PTR ?staticMetaObject@addstudent@@2UQMetaObject@@B+16, rax
; Line 84
	lea	rax, OFFSET FLAT:?qt_static_metacall@addstudent@@CAXPEAVQObject@@W4Call@QMetaObject@@HPEAPEAX@Z ; addstudent::qt_static_metacall
	mov	QWORD PTR ?staticMetaObject@addstudent@@2UQMetaObject@@B+24, rax
; Line 85
	mov	QWORD PTR ?staticMetaObject@addstudent@@2UQMetaObject@@B+32, 0
; Line 86
	mov	QWORD PTR ?staticMetaObject@addstudent@@2UQMetaObject@@B+40, 0
	ret	0
??__E?staticMetaObject@addstudent@@2UQMetaObject@@B@@YAXXZ ENDP ; `dynamic initializer for 'addstudent::staticMetaObject''
text$di	ENDS
; Function compile flags: /Odtp
_TEXT	SEGMENT
tv69 = 32
_t$1 = 40
_o$ = 64
_c$ = 72
_id$ = 80
_a$ = 88
?qt_static_metacall@addstudent@@CAXPEAVQObject@@W4Call@QMetaObject@@HPEAPEAX@Z PROC ; addstudent::qt_static_metacall
; File f:\qt\system\system\x64\debug\moc\moc_addstudent.cpp
; Line 68
$LN8:
	mov	QWORD PTR [rsp+32], r9
	mov	DWORD PTR [rsp+24], r8d
	mov	DWORD PTR [rsp+16], edx
	mov	QWORD PTR [rsp+8], rcx
	sub	rsp, 56					; 00000038H
; Line 69
	cmp	DWORD PTR _c$[rsp], 0
	jne	SHORT $LN4@qt_static_
; Line 70
	mov	rax, QWORD PTR _o$[rsp]
	mov	QWORD PTR _t$1[rsp], rax
; Line 72
	mov	eax, DWORD PTR _id$[rsp]
	mov	DWORD PTR tv69[rsp], eax
	cmp	DWORD PTR tv69[rsp], 0
	je	SHORT $LN5@qt_static_
	jmp	SHORT $LN6@qt_static_
$LN5@qt_static_:
; Line 73
	mov	rcx, QWORD PTR _t$1[rsp]
	call	?on_pushButton_ok_clicked@addstudent@@AEAAXXZ ; addstudent::on_pushButton_ok_clicked
$LN6@qt_static_:
$LN4@qt_static_:
; Line 78
	add	rsp, 56					; 00000038H
	ret	0
?qt_static_metacall@addstudent@@CAXPEAVQObject@@W4Call@QMetaObject@@HPEAPEAX@Z ENDP ; addstudent::qt_static_metacall
_TEXT	ENDS
; Function compile flags: /Odtp
_TEXT	SEGMENT
this$ = 48
_c$ = 56
_id$ = 64
_a$ = 72
?qt_metacall@addstudent@@UEAAHW4Call@QMetaObject@@HPEAPEAX@Z PROC ; addstudent::qt_metacall
; File f:\qt\system\system\x64\debug\moc\moc_addstudent.cpp
; Line 104
$LN9:
	mov	QWORD PTR [rsp+32], r9
	mov	DWORD PTR [rsp+24], r8d
	mov	DWORD PTR [rsp+16], edx
	mov	QWORD PTR [rsp+8], rcx
	sub	rsp, 40					; 00000028H
; Line 105
	mov	r9, QWORD PTR _a$[rsp]
	mov	r8d, DWORD PTR _id$[rsp]
	mov	edx, DWORD PTR _c$[rsp]
	mov	rcx, QWORD PTR this$[rsp]
	call	QWORD PTR __imp_?qt_metacall@QDialog@@UEAAHW4Call@QMetaObject@@HPEAPEAX@Z
	mov	DWORD PTR _id$[rsp], eax
; Line 106
	cmp	DWORD PTR _id$[rsp], 0
	jge	SHORT $LN2@qt_metacal
; Line 107
	mov	eax, DWORD PTR _id$[rsp]
	jmp	SHORT $LN1@qt_metacal
$LN2@qt_metacal:
; Line 108
	cmp	DWORD PTR _c$[rsp], 0
	jne	SHORT $LN3@qt_metacal
; Line 109
	cmp	DWORD PTR _id$[rsp], 1
	jge	SHORT $LN5@qt_metacal
; Line 110
	mov	r9, QWORD PTR _a$[rsp]
	mov	r8d, DWORD PTR _id$[rsp]
	mov	edx, DWORD PTR _c$[rsp]
	mov	rcx, QWORD PTR this$[rsp]
	call	?qt_static_metacall@addstudent@@CAXPEAVQObject@@W4Call@QMetaObject@@HPEAPEAX@Z ; addstudent::qt_static_metacall
$LN5@qt_metacal:
; Line 111
	mov	eax, DWORD PTR _id$[rsp]
	dec	eax
	mov	DWORD PTR _id$[rsp], eax
	jmp	SHORT $LN4@qt_metacal
$LN3@qt_metacal:
; Line 112
	cmp	DWORD PTR _c$[rsp], 12
	jne	SHORT $LN6@qt_metacal
; Line 113
	cmp	DWORD PTR _id$[rsp], 1
	jge	SHORT $LN7@qt_metacal
; Line 114
	mov	eax, 8
	imul	rax, rax, 0
	mov	rcx, QWORD PTR _a$[rsp]
	mov	rax, QWORD PTR [rcx+rax]
	mov	DWORD PTR [rax], -1
$LN7@qt_metacal:
; Line 115
	mov	eax, DWORD PTR _id$[rsp]
	dec	eax
	mov	DWORD PTR _id$[rsp], eax
$LN6@qt_metacal:
$LN4@qt_metacal:
; Line 117
	mov	eax, DWORD PTR _id$[rsp]
$LN1@qt_metacal:
; Line 118
	add	rsp, 40					; 00000028H
	ret	0
?qt_metacall@addstudent@@UEAAHW4Call@QMetaObject@@HPEAPEAX@Z ENDP ; addstudent::qt_metacall
_TEXT	ENDS
; Function compile flags: /Odtp
_TEXT	SEGMENT
this$ = 48
_clname$ = 56
?qt_metacast@addstudent@@UEAAPEAXPEBD@Z PROC		; addstudent::qt_metacast
; File f:\qt\system\system\x64\debug\moc\moc_addstudent.cpp
; Line 96
$LN5:
	mov	QWORD PTR [rsp+16], rdx
	mov	QWORD PTR [rsp+8], rcx
	sub	rsp, 40					; 00000028H
; Line 97
	cmp	QWORD PTR _clname$[rsp], 0
	jne	SHORT $LN2@qt_metacas
	xor	eax, eax
	jmp	SHORT $LN1@qt_metacas
$LN2@qt_metacas:
; Line 98
	lea	rdx, OFFSET FLAT:?qt_meta_stringdata_addstudent@@3Uqt_meta_stringdata_addstudent_t@@B+72
	mov	rcx, QWORD PTR _clname$[rsp]
	call	strcmp
	test	eax, eax
	jne	SHORT $LN3@qt_metacas
; Line 99
	mov	rax, QWORD PTR this$[rsp]
	jmp	SHORT $LN1@qt_metacas
$LN3@qt_metacas:
; Line 100
	mov	rdx, QWORD PTR _clname$[rsp]
	mov	rcx, QWORD PTR this$[rsp]
	call	QWORD PTR __imp_?qt_metacast@QDialog@@UEAAPEAXPEBD@Z
$LN1@qt_metacas:
; Line 101
	add	rsp, 40					; 00000028H
	ret	0
?qt_metacast@addstudent@@UEAAPEAXPEBD@Z ENDP		; addstudent::qt_metacast
_TEXT	ENDS
; Function compile flags: /Odtp
_TEXT	SEGMENT
tv82 = 32
this$ = 64
?metaObject@addstudent@@UEBAPEBUQMetaObject@@XZ PROC	; addstudent::metaObject
; File f:\qt\system\system\x64\debug\moc\moc_addstudent.cpp
; Line 91
$LN5:
	mov	QWORD PTR [rsp+8], rcx
	sub	rsp, 56					; 00000038H
; Line 92
	mov	rax, QWORD PTR this$[rsp]
	add	rax, 8
	mov	rcx, rax
	call	??C?$QScopedPointer@VQObjectData@@U?$QScopedPointerDeleter@VQObjectData@@@@@@QEBAPEAVQObjectData@@XZ ; QScopedPointer<QObjectData,QScopedPointerDeleter<QObjectData> >::operator->
	cmp	QWORD PTR [rax+40], 0
	je	SHORT $LN3@metaObject
	mov	rax, QWORD PTR this$[rsp]
	add	rax, 8
	mov	rcx, rax
	call	??C?$QScopedPointer@VQObjectData@@U?$QScopedPointerDeleter@VQObjectData@@@@@@QEBAPEAVQObjectData@@XZ ; QScopedPointer<QObjectData,QScopedPointerDeleter<QObjectData> >::operator->
	mov	rcx, rax
	call	QWORD PTR __imp_?dynamicMetaObject@QObjectData@@QEBAPEAUQMetaObject@@XZ
	mov	QWORD PTR tv82[rsp], rax
	jmp	SHORT $LN4@metaObject
$LN3@metaObject:
	lea	rax, OFFSET FLAT:?staticMetaObject@addstudent@@2UQMetaObject@@B ; addstudent::staticMetaObject
	mov	QWORD PTR tv82[rsp], rax
$LN4@metaObject:
	mov	rax, QWORD PTR tv82[rsp]
; Line 93
	add	rsp, 56					; 00000038H
	ret	0
?metaObject@addstudent@@UEBAPEBUQMetaObject@@XZ ENDP	; addstudent::metaObject
_TEXT	ENDS
; Function compile flags: /Odtp
;	COMDAT ??C?$QScopedPointer@VQObjectData@@U?$QScopedPointerDeleter@VQObjectData@@@@@@QEBAPEAVQObjectData@@XZ
_TEXT	SEGMENT
this$ = 8
??C?$QScopedPointer@VQObjectData@@U?$QScopedPointerDeleter@VQObjectData@@@@@@QEBAPEAVQObjectData@@XZ PROC ; QScopedPointer<QObjectData,QScopedPointerDeleter<QObjectData> >::operator->, COMDAT
; File e:\qt\5.13.1\msvc2017_64\include\qtcore\qscopedpointer.h
; Line 117
	mov	QWORD PTR [rsp+8], rcx
; Line 118
	mov	rax, QWORD PTR this$[rsp]
	mov	rax, QWORD PTR [rax]
; Line 119
	ret	0
??C?$QScopedPointer@VQObjectData@@U?$QScopedPointerDeleter@VQObjectData@@@@@@QEBAPEAVQObjectData@@XZ ENDP ; QScopedPointer<QObjectData,QScopedPointerDeleter<QObjectData> >::operator->
_TEXT	ENDS
; Function compile flags: /Odtp
;	COMDAT ?__empty_global_delete@@YAXPEAX_K@Z
_TEXT	SEGMENT
__formal$ = 8
__formal$ = 16
?__empty_global_delete@@YAXPEAX_K@Z PROC		; __empty_global_delete, COMDAT
; File f:\qt\system\system\x64\debug\moc\moc_addstudent.cpp
; Line 121
	mov	QWORD PTR [rsp+16], rdx
	mov	QWORD PTR [rsp+8], rcx
	ret	0
?__empty_global_delete@@YAXPEAX_K@Z ENDP		; __empty_global_delete
_TEXT	ENDS
; Function compile flags: /Odtp
;	COMDAT ?__empty_global_delete@@YAXPEAX@Z
_TEXT	SEGMENT
__formal$ = 8
?__empty_global_delete@@YAXPEAX@Z PROC			; __empty_global_delete, COMDAT
; File f:\qt\system\system\x64\debug\moc\moc_addstudent.cpp
; Line 121
	mov	QWORD PTR [rsp+8], rcx
	ret	0
?__empty_global_delete@@YAXPEAX@Z ENDP			; __empty_global_delete
_TEXT	ENDS
END
